	.file	"hw4.c"
	.text
.Ltext0:
	.globl	print_value
	.type	print_value, @function
print_value:
.LFB40:
	.file 1 "hw4.c"
	.loc 1 56 0
	.cfi_startproc
.LVL0:
	pushq	%rbp
	.cfi_def_cfa_offset 16
	.cfi_offset 6, -16
	pushq	%rbx
	.cfi_def_cfa_offset 24
	.cfi_offset 3, -24
	subq	$8, %rsp
	.cfi_def_cfa_offset 32
	movq	%rdi, %rbp
.LVL1:
	.loc 1 56 0
	movl	$60, %ebx
.LVL2:
.L5:
.LBB17:
	.loc 1 67 0
	movq	%rbp, %rax
	movl	%ebx, %ecx
	shrq	%cl, %rax
	.loc 1 68 0
	andl	$15, %eax
.LVL3:
	.loc 1 69 0
	cmpb	$9, %al
	ja	.L2
.LVL4:
	.loc 1 70 0
	movzbl	%al, %eax
	leal	48(%rax), %edi
.LVL5:
.LBB18:
.LBB19:
	.file 2 "/usr/include/x86_64-linux-gnu/bits/stdio.h"
	.loc 2 81 0
	movq	stdout(%rip), %rsi
	call	_IO_putc
.LVL6:
	jmp	.L3
.LVL7:
.L2:
.LBE19:
.LBE18:
	.loc 1 72 0
	movzbl	%al, %eax
.LVL8:
	leal	87(%rax), %edi
.LVL9:
.LBB20:
.LBB21:
	.loc 2 81 0
	movq	stdout(%rip), %rsi
	call	_IO_putc
.LVL10:
.L3:
	subl	$4, %ebx
.LVL11:
.LBE21:
.LBE20:
.LBE17:
	.loc 1 63 0
	cmpl	$-4, %ebx
	jne	.L5
	.loc 1 76 0
	addq	$8, %rsp
	.cfi_def_cfa_offset 24
	popq	%rbx
	.cfi_def_cfa_offset 16
.LVL12:
	popq	%rbp
	.cfi_def_cfa_offset 8
.LVL13:
	ret
	.cfi_endproc
.LFE40:
	.size	print_value, .-print_value
	.section	.rodata.str1.1,"aMS",@progbits,1
.LC0:
	.string	"foo called with args "
.LC1:
	.string	"a: "
.LC2:
	.string	"\nb: "
.LC3:
	.string	"\nc: "
.LC4:
	.string	"\n"
	.text
	.globl	recover
	.type	recover, @function
recover:
.LFB39:
	.loc 1 14 0
	.cfi_startproc
	pushq	%rbp
	.cfi_def_cfa_offset 16
	.cfi_offset 6, -16
	movq	%rsp, %rbp
	.cfi_def_cfa_register 6
	pushq	%r12
	pushq	%rbx
	subq	$16, %rsp
	.cfi_offset 12, -24
	.cfi_offset 3, -32
.LVL14:
	.loc 1 19 0
	leaq	-24(%rbp), %rax
	movq	%rax, -24(%rbp)
	.loc 1 20 0
	movq	48(%rbp), %rax
.LVL15:
	.loc 1 21 0
	leaq	3(%rax,%rax,2), %rbx
.LVL16:
	.loc 1 22 0
	leaq	22(,%rbx,8), %rax
.LVL17:
	andq	$-16, %rax
	subq	%rax, %rsp
	movq	%rsp, %r12
.LVL18:
	.loc 1 25 0
	leaq	7(%rbx,%rbx), %r8
	cmpq	$5, %r8
	jbe	.L8
	leaq	16(%rbp), %rdx
.LVL19:
	.loc 1 16 0
	movl	$0, %eax
	.loc 1 25 0
	movl	$5, %ecx
.LVL20:
.L9:
	.loc 1 27 0 discriminator 2
	movslq	%eax, %rsi
	movq	(%rdx), %rdi
	movq	%rdi, (%r12,%rsi,8)
.LVL21:
	leal	1(%rax), %esi
.LVL22:
	.loc 1 29 0 discriminator 2
	movslq	%esi, %rsi
	movq	16(%rdx), %rdi
	movq	%rdi, (%r12,%rsi,8)
.LVL23:
	leal	2(%rax), %esi
.LVL24:
	.loc 1 31 0 discriminator 2
	movslq	%esi, %rsi
	movq	8(%rdx), %rdi
	movq	%rdi, (%r12,%rsi,8)
	.loc 1 32 0 discriminator 2
	addl	$3, %eax
.LVL25:
	.loc 1 25 0 discriminator 2
	addq	$6, %rcx
.LVL26:
	addq	$48, %rdx
	cmpq	%r8, %rcx
	jb	.L9
.LVL27:
.L8:
	.loc 1 37 0
	subl	$1, %ebx
.LVL28:
	testl	%ebx, %ebx
	jle	.L7
.L11:
.LVL29:
.LBB22:
.LBB23:
	.file 3 "/usr/include/x86_64-linux-gnu/bits/stdio2.h"
	.loc 3 104 0
	movl	$.LC0, %edi
	call	puts
.LVL30:
.LBE23:
.LBE22:
.LBB24:
.LBB25:
	movl	$.LC1, %esi
	movl	$1, %edi
	movl	$0, %eax
	call	__printf_chk
.LVL31:
	leal	-2(%rbx), %eax
.LBE25:
.LBE24:
	.loc 1 41 0
	cltq
	movq	(%r12,%rax,8), %rdi
	call	print_value
.LVL32:
.LBB26:
.LBB27:
	.loc 3 104 0
	movl	$.LC2, %esi
	movl	$1, %edi
	movl	$0, %eax
	call	__printf_chk
.LVL33:
	leal	-1(%rbx), %eax
.LBE27:
.LBE26:
	.loc 1 43 0
	cltq
	movq	(%r12,%rax,8), %rdi
	call	print_value
.LVL34:
.LBB28:
.LBB29:
	.loc 3 104 0
	movl	$.LC3, %esi
	movl	$1, %edi
	movl	$0, %eax
	call	__printf_chk
.LVL35:
.LBE29:
.LBE28:
	.loc 1 45 0
	movslq	%ebx, %rax
	movq	(%r12,%rax,8), %rdi
	call	print_value
.LVL36:
.LBB30:
.LBB31:
	.loc 3 104 0
	movl	$.LC4, %edi
	call	puts
.LVL37:
.LBE31:
.LBE30:
	.loc 1 37 0
	subl	$3, %ebx
.LVL38:
	testl	%ebx, %ebx
	jg	.L11
.LVL39:
.L7:
	.loc 1 52 0
	leaq	-16(%rbp), %rsp
.LVL40:
	popq	%rbx
.LVL41:
	popq	%r12
.LVL42:
	popq	%rbp
	.cfi_def_cfa 7, 8
	ret
	.cfi_endproc
.LFE39:
	.size	recover, .-recover
.Letext0:
	.file 4 "/usr/lib/gcc/x86_64-linux-gnu/4.8/include/stddef.h"
	.file 5 "/usr/include/x86_64-linux-gnu/bits/types.h"
	.file 6 "/usr/include/libio.h"
	.file 7 "/usr/include/stdio.h"
	.file 8 "<built-in>"
	.section	.note.GNU-stack,"",@progbits
