	.file	"hw4main.c"
	.text
.Ltext0:
	.globl	foo
	.type	foo, @function
foo:
.LFB40:
	.file 1 "hw4main.c"
	.loc 1 31 0
	.cfi_startproc
.LVL0:
	pushq	%r14
	.cfi_def_cfa_offset 16
	.cfi_offset 14, -16
	pushq	%r13
	.cfi_def_cfa_offset 24
	.cfi_offset 13, -24
	pushq	%r12
	.cfi_def_cfa_offset 32
	.cfi_offset 12, -32
	pushq	%rbp
	.cfi_def_cfa_offset 40
	.cfi_offset 6, -40
	pushq	%rbx
	.cfi_def_cfa_offset 48
	.cfi_offset 3, -48
	movq	%rdi, %rbx
	movq	%r8, %r13
	.loc 1 33 0
	testq	%r8, %r8
	jne	.L2
	.loc 1 34 0
	movl	$0, %eax
	call	recover
.LVL1:
	.loc 1 35 0
	movq	%rbx, %rax
	jmp	.L3
.LVL2:
.L2:
	movq	%rsi, %r12
	movq	%rdx, %rbp
	movq	%rcx, %r14
	.loc 1 40 0
	leaq	(%rdi,%rdi), %rdi
	.loc 1 38 0
	leaq	12(%rbx,%rbx), %rax
	testq	%rbx, %rbx
	cmovs	%rax, %rdi
.LVL3:
	.loc 1 44 0
	leaq	(%rsi,%rsi), %rsi
.LVL4:
	.loc 1 42 0
	leaq	34(%r12,%r12), %rax
	testq	%r12, %r12
	cmovs	%rax, %rsi
.LVL5:
	.loc 1 48 0
	leaq	(%rdx,%rdx), %rdx
.LVL6:
	.loc 1 46 0
	leaq	56(%rbp,%rbp), %rax
	testq	%rbp, %rbp
	cmovs	%rax, %rdx
.LVL7:
	.loc 1 52 0
	leaq	1(%rcx), %rcx
.LVL8:
	.loc 1 51 0
	xorq	%rbx, %rdx
.LVL9:
	.loc 1 50 0
	xorq	%rbp, %rsi
.LVL10:
	.loc 1 49 0
	xorq	%r12, %rdi
.LVL11:
	.loc 1 52 0
	leaq	-1(%r8), %r8
.LVL12:
	call	foo
.LVL13:
	addq	%rax, %rbx
.LVL14:
	addq	%rbx, %r12
.LVL15:
	addq	%r12, %rbp
.LVL16:
	addq	%rbp, %r14
.LVL17:
	leaq	(%r14,%r13), %rax
.LVL18:
.L3:
	.loc 1 53 0
	popq	%rbx
	.cfi_def_cfa_offset 40
	popq	%rbp
	.cfi_def_cfa_offset 32
	popq	%r12
	.cfi_def_cfa_offset 24
	popq	%r13
	.cfi_def_cfa_offset 16
.LVL19:
	popq	%r14
	.cfi_def_cfa_offset 8
	ret
	.cfi_endproc
.LFE40:
	.size	foo, .-foo
	.section	.rodata.str1.8,"aMS",@progbits,1
	.align 8
.LC0:
	.string	"Usage: program <int> <int> <int> <int>"
	.align 8
.LC1:
	.string	"main called with a = 0x%lx, b = 0x%lx, c = 0x%lx, countDown = %ld\n"
	.section	.rodata.str1.1,"aMS",@progbits,1
.LC2:
	.string	"foo returns 0x%lx\n"
	.text
	.globl	main
	.type	main, @function
main:
.LFB39:
	.loc 1 15 0
	.cfi_startproc
.LVL20:
	pushq	%r13
	.cfi_def_cfa_offset 16
	.cfi_offset 13, -16
	pushq	%r12
	.cfi_def_cfa_offset 24
	.cfi_offset 12, -24
	pushq	%rbp
	.cfi_def_cfa_offset 32
	.cfi_offset 6, -32
	pushq	%rbx
	.cfi_def_cfa_offset 40
	.cfi_offset 3, -40
	subq	$8, %rsp
	.cfi_def_cfa_offset 48
	.loc 1 17 0
	cmpl	$5, %edi
	je	.L12
.LVL21:
.LBB16:
.LBB17:
	.file 2 "/usr/include/x86_64-linux-gnu/bits/stdio2.h"
	.loc 2 104 0
	movl	$.LC0, %edi
.LVL22:
	call	puts
.LVL23:
.LBE17:
.LBE16:
	.loc 1 19 0
	movl	$-1, %edi
	call	exit
.LVL24:
.L12:
	movq	%rsi, %rbx
.LVL25:
.LBB18:
.LBB19:
	.file 3 "/usr/include/stdlib.h"
	.loc 3 280 0
	movq	8(%rsi), %rdi
.LVL26:
	movl	$10, %edx
	movl	$0, %esi
.LVL27:
	call	strtol
.LVL28:
.LBE19:
.LBE18:
	.loc 1 21 0
	movslq	%eax, %rbp
.LVL29:
.LBB20:
.LBB21:
	.loc 3 280 0
	movq	16(%rbx), %rdi
	movl	$10, %edx
	movl	$0, %esi
	call	strtol
.LVL30:
.LBE21:
.LBE20:
	.loc 1 22 0
	movslq	%eax, %r12
.LVL31:
.LBB22:
.LBB23:
	.loc 3 280 0
	movq	24(%rbx), %rdi
	movl	$10, %edx
	movl	$0, %esi
	call	strtol
.LVL32:
.LBE23:
.LBE22:
	.loc 1 23 0
	movslq	%eax, %r13
.LVL33:
.LBB24:
.LBB25:
	.loc 3 280 0
	movq	32(%rbx), %rdi
	movl	$10, %edx
	movl	$0, %esi
	call	strtol
.LVL34:
.LBE25:
.LBE24:
	.loc 1 24 0
	movslq	%eax, %rbx
.LVL35:
.LBB26:
.LBB27:
	.loc 2 104 0
	movq	%rbx, %r9
	movq	%r13, %r8
	movq	%r12, %rcx
	movq	%rbp, %rdx
	movl	$.LC1, %esi
	movl	$1, %edi
	movl	$0, %eax
	call	__printf_chk
.LVL36:
.LBE27:
.LBE26:
	.loc 1 26 0
	movq	%rbx, %r8
	movl	$0, %ecx
	movq	%r13, %rdx
	movq	%r12, %rsi
	movq	%rbp, %rdi
	call	foo
.LVL37:
.LBB28:
.LBB29:
	.loc 2 104 0
	movq	%rax, %rdx
	movl	$.LC2, %esi
	movl	$1, %edi
	movl	$0, %eax
.LVL38:
	call	__printf_chk
.LVL39:
.LBE29:
.LBE28:
	.loc 1 29 0
	movl	$0, %eax
	addq	$8, %rsp
	.cfi_def_cfa_offset 40
	popq	%rbx
	.cfi_def_cfa_offset 32
.LVL40:
	popq	%rbp
	.cfi_def_cfa_offset 24
.LVL41:
	popq	%r12
	.cfi_def_cfa_offset 16
.LVL42:
	popq	%r13
	.cfi_def_cfa_offset 8
.LVL43:
	ret
	.cfi_endproc
.LFE39:
	.size	main, .-main
.Letext0:
	.file 4 "/usr/lib/gcc/x86_64-linux-gnu/4.8/include/stddef.h"
	.file 5 "/usr/include/x86_64-linux-gnu/bits/types.h"
	.file 6 "/usr/include/libio.h"
	.file 7 "/usr/include/stdio.h"
	.file 8 "<built-in>"
	.section	.note.GNU-stack,"",@progbits
